; Function Attrs: mustprogress uwtable
define hidden void @_ZN4cvc58internal6theory2bv8TheoryBV9postCheckENS1_6Theory6EffortE(ptr noundef nonnull align 8 dereferenceable(3808) %this, i32 noundef %e) unnamed_addr #3 align 2 {
entry:
  %d_pScope.i.i.i = getelementptr inbounds i8, ptr %this, i64 3704
  %0 = load ptr, ptr %d_pScope.i.i.i, align 8
  %1 = load ptr, ptr %0, align 8
  %_M_finish.i.i.i.i.i.i.i = getelementptr inbounds i8, ptr %1, i64 16
  %2 = load ptr, ptr %_M_finish.i.i.i.i.i.i.i, align 8
  %add.ptr.i.i.i.i.i.i.i = getelementptr inbounds i8, ptr %2, i64 -8
  %3 = load ptr, ptr %add.ptr.i.i.i.i.i.i.i, align 8
  %cmp.i.i.i.i = icmp eq ptr %3, %0
  br i1 %cmp.i.i.i.i, label %_ZN4cvc57context3CDOIbEaSERKb.exit, label %if.then.i.i.i

if.then.i.i.i:                                    ; preds = %entry
  %d_invalidateModelCache = getelementptr inbounds i8, ptr %this, i64 3696
  tail call void @_ZN4cvc57context10ContextObj6updateEv(ptr noundef nonnull align 8 dereferenceable(40) %d_invalidateModelCache)
  br label %_ZN4cvc57context3CDOIbEaSERKb.exit

_ZN4cvc57context3CDOIbEaSERKb.exit:               ; preds = %entry, %if.then.i.i.i
  %d_data.i.i = getelementptr inbounds i8, ptr %this, i64 3736
  store i8 1, ptr %d_data.i.i, align 8
  %d_internal = getelementptr inbounds i8, ptr %this, i64 408
  %4 = load ptr, ptr %d_internal, align 8
  %vtable = load ptr, ptr %4, align 8
  %vfn = getelementptr inbounds i8, ptr %vtable, i64 48
  %5 = load ptr, ptr %vfn, align 8
  tail call void %5(ptr noundef nonnull align 8 dereferenceable(32) %4, i32 noundef %e)
  ret void
}